target datalayout = "e-m:e-p270:32:32-p271:32:32-p272:64:64-i64:64-i128:128-f80:128-n8:16:32:64-S128"
target triple = "x86_64-pc-linux-gnu"

@_ZN7meshoptL5cpuidE = internal global i32 0, align 4

; Function Attrs: mustprogress nounwind uwtable
define internal noundef i64 @_ZN7meshoptL18getVertexBlockSizeEm(i64 noundef %0) #1 {
  %2 = alloca i64, align 8
  %3 = alloca i64, align 8
  store i64 %0, ptr %2, align 8, !tbaa !18
  call void @llvm.lifetime.start.p0(i64 8, ptr %3) #14
  %4 = load i64, ptr %2, align 8, !tbaa !18
  %5 = udiv i64 8192, %4
  %6 = and i64 %5, -16
  store i64 %6, ptr %3, align 8, !tbaa !18
  %7 = load i64, ptr %3, align 8, !tbaa !18
  %8 = icmp ult i64 %7, 256
  br i1 %8, label %9, label %11

9:                                                ; preds = %1
  %10 = load i64, ptr %3, align 8, !tbaa !18
  br label %12

11:                                               ; preds = %1
  br label %12

12:                                               ; preds = %11, %9
  %13 = phi i64 [ %10, %9 ], [ 256, %11 ]
  call void @llvm.lifetime.end.p0(i64 8, ptr %3) #14
  ret i64 %13
}

; Function Attrs: mustprogress uwtable
define dso_local i32 @meshopt_decodeVertexBuffer(ptr noundef %0, i64 noundef %1, i64 noundef %2, ptr noundef %3, i64 noundef %4) #2 {
  %6 = alloca i32, align 4
  %7 = alloca ptr, align 8
  %8 = alloca i64, align 8
  %9 = alloca i64, align 8
  %10 = alloca ptr, align 8
  %11 = alloca i64, align 8
  %12 = alloca ptr, align 8
  %13 = alloca ptr, align 8
  %14 = alloca ptr, align 8
  %15 = alloca ptr, align 8
  %16 = alloca i32, align 4
  %17 = alloca i8, align 1
  %18 = alloca i32, align 4
  %19 = alloca i64, align 8
  %20 = alloca i64, align 8
  %21 = alloca i64, align 8
  %22 = alloca ptr, align 8
  %23 = alloca [256 x i8], align 16
  %24 = alloca ptr, align 8
  %25 = alloca i64, align 8
  %26 = alloca i64, align 8
  %27 = alloca i64, align 8
  store ptr %0, ptr %7, align 8, !tbaa !20
  store i64 %1, ptr %8, align 8, !tbaa !18
  store i64 %2, ptr %9, align 8, !tbaa !18
  store ptr %3, ptr %10, align 8, !tbaa !15
  store i64 %4, ptr %11, align 8, !tbaa !18
  call void @llvm.lifetime.start.p0(i64 8, ptr %12) #14
  store ptr null, ptr %12, align 8, !tbaa !20
  %28 = load i32, ptr @_ZN7meshoptL5cpuidE, align 4, !tbaa !8
  %29 = and i32 %28, 512
  %30 = icmp ne i32 %29, 0
  br i1 %30, label %31, label %32

31:                                               ; preds = %5
  br label %33

32:                                               ; preds = %5
  br label %33

33:                                               ; preds = %32, %31
  %34 = phi ptr [ @_ZN7meshoptL21decodeVertexBlockSimdEPKhS1_PhmmS2_S1_i, %31 ], [ @_ZN7meshoptL17decodeVertexBlockEPKhS1_PhmmS2_S1_i, %32 ]
  store ptr %34, ptr %12, align 8, !tbaa !20
  call void @llvm.lifetime.start.p0(i64 8, ptr %13) #14
  %35 = load ptr, ptr %7, align 8, !tbaa !20
  store ptr %35, ptr %13, align 8, !tbaa !15
  call void @llvm.lifetime.start.p0(i64 8, ptr %14) #14
  %36 = load ptr, ptr %10, align 8, !tbaa !15
  store ptr %36, ptr %14, align 8, !tbaa !15
  call void @llvm.lifetime.start.p0(i64 8, ptr %15) #14
  %37 = load ptr, ptr %10, align 8, !tbaa !15
  %38 = load i64, ptr %11, align 8, !tbaa !18
  %39 = getelementptr inbounds nuw i8, ptr %37, i64 %38
  store ptr %39, ptr %15, align 8, !tbaa !15
  %40 = load ptr, ptr %15, align 8, !tbaa !15
  %41 = load ptr, ptr %14, align 8, !tbaa !15
  %42 = ptrtoint ptr %40 to i64
  %43 = ptrtoint ptr %41 to i64
  %44 = sub i64 %42, %43
  %45 = icmp ult i64 %44, 1
  br i1 %45, label %46, label %47

46:                                               ; preds = %33
  store i32 -2, ptr %6, align 4
  store i32 1, ptr %16, align 4
  br label %169

47:                                               ; preds = %33
  call void @llvm.lifetime.start.p0(i64 1, ptr %17) #14
  %48 = load ptr, ptr %14, align 8, !tbaa !15
  %49 = getelementptr inbounds nuw i8, ptr %48, i32 1
  store ptr %49, ptr %14, align 8, !tbaa !15
  %50 = load i8, ptr %48, align 1, !tbaa !10
  store i8 %50, ptr %17, align 1, !tbaa !10
  %51 = load i8, ptr %17, align 1, !tbaa !10
  %52 = zext i8 %51 to i32
  %53 = and i32 %52, 240
  %54 = icmp ne i32 %53, 160
  br i1 %54, label %55, label %56

55:                                               ; preds = %47
  store i32 -1, ptr %6, align 4
  store i32 1, ptr %16, align 4
  br label %168

56:                                               ; preds = %47
  call void @llvm.lifetime.start.p0(i64 4, ptr %18) #14
  %57 = load i8, ptr %17, align 1, !tbaa !10
  %58 = zext i8 %57 to i32
  %59 = and i32 %58, 15
  store i32 %59, ptr %18, align 4, !tbaa !8
  %60 = load i32, ptr %18, align 4, !tbaa !8
  %61 = icmp sgt i32 %60, 1
  br i1 %61, label %62, label %63

62:                                               ; preds = %56
  store i32 -1, ptr %6, align 4
  store i32 1, ptr %16, align 4
  br label %167

63:                                               ; preds = %56
  call void @llvm.lifetime.start.p0(i64 8, ptr %19) #14
  %64 = load i64, ptr %9, align 8, !tbaa !18
  %65 = load i32, ptr %18, align 4, !tbaa !8
  %66 = icmp eq i32 %65, 0
  br i1 %66, label %67, label %68

67:                                               ; preds = %63
  br label %71

68:                                               ; preds = %63
  %69 = load i64, ptr %9, align 8, !tbaa !18
  %70 = udiv i64 %69, 4
  br label %71

71:                                               ; preds = %68, %67
  %72 = phi i64 [ 0, %67 ], [ %70, %68 ]
  %73 = add i64 %64, %72
  store i64 %73, ptr %19, align 8, !tbaa !18
  call void @llvm.lifetime.start.p0(i64 8, ptr %20) #14
  %74 = load i32, ptr %18, align 4, !tbaa !8
  %75 = icmp eq i32 %74, 0
  %76 = select i1 %75, i64 32, i64 24
  store i64 %76, ptr %20, align 8, !tbaa !18
  call void @llvm.lifetime.start.p0(i64 8, ptr %21) #14
  %77 = load i64, ptr %19, align 8, !tbaa !18
  %78 = load i64, ptr %20, align 8, !tbaa !18
  %79 = icmp ult i64 %77, %78
  br i1 %79, label %80, label %82

80:                                               ; preds = %71
  %81 = load i64, ptr %20, align 8, !tbaa !18
  br label %84

82:                                               ; preds = %71
  %83 = load i64, ptr %19, align 8, !tbaa !18
  br label %84

84:                                               ; preds = %82, %80
  %85 = phi i64 [ %81, %80 ], [ %83, %82 ]
  store i64 %85, ptr %21, align 8, !tbaa !18
  %86 = load ptr, ptr %15, align 8, !tbaa !15
  %87 = load ptr, ptr %14, align 8, !tbaa !15
  %88 = ptrtoint ptr %86 to i64
  %89 = ptrtoint ptr %87 to i64
  %90 = sub i64 %88, %89
  %91 = load i64, ptr %21, align 8, !tbaa !18
  %92 = icmp ult i64 %90, %91
  br i1 %92, label %93, label %94

93:                                               ; preds = %84
  store i32 -2, ptr %6, align 4
  store i32 1, ptr %16, align 4
  br label %166

94:                                               ; preds = %84
  call void @llvm.lifetime.start.p0(i64 8, ptr %22) #14
  %95 = load ptr, ptr %15, align 8, !tbaa !15
  %96 = load i64, ptr %19, align 8, !tbaa !18
  %97 = sub i64 0, %96
  %98 = getelementptr inbounds i8, ptr %95, i64 %97
  store ptr %98, ptr %22, align 8, !tbaa !15
  call void @llvm.lifetime.start.p0(i64 256, ptr %23) #14
  %99 = getelementptr inbounds [256 x i8], ptr %23, i64 0, i64 0
  %100 = load ptr, ptr %22, align 8, !tbaa !15
  %101 = load i64, ptr %9, align 8, !tbaa !18
  call void @llvm.memcpy.p0.p0.i64(ptr align 16 %99, ptr align 1 %100, i64 %101, i1 false)
  call void @llvm.lifetime.start.p0(i64 8, ptr %24) #14
  %102 = load i32, ptr %18, align 4, !tbaa !8
  %103 = icmp eq i32 %102, 0
  br i1 %103, label %104, label %105

104:                                              ; preds = %94
  br label %109

105:                                              ; preds = %94
  %106 = load ptr, ptr %22, align 8, !tbaa !15
  %107 = load i64, ptr %9, align 8, !tbaa !18
  %108 = getelementptr inbounds nuw i8, ptr %106, i64 %107
  br label %109

109:                                              ; preds = %105, %104
  %110 = phi ptr [ null, %104 ], [ %108, %105 ]
  store ptr %110, ptr %24, align 8, !tbaa !15
  call void @llvm.lifetime.start.p0(i64 8, ptr %25) #14
  %111 = load i64, ptr %9, align 8, !tbaa !18
  %112 = call noundef i64 @_ZN7meshoptL18getVertexBlockSizeEm(i64 noundef %111)
  store i64 %112, ptr %25, align 8, !tbaa !18
  call void @llvm.lifetime.start.p0(i64 8, ptr %26) #14
  store i64 0, ptr %26, align 8, !tbaa !18
  br label %113

113:                                              ; preds = %154, %109
  %114 = load i64, ptr %26, align 8, !tbaa !18
  %115 = load i64, ptr %8, align 8, !tbaa !18
  %116 = icmp ult i64 %114, %115
  br i1 %116, label %117, label %155

117:                                              ; preds = %113
  call void @llvm.lifetime.start.p0(i64 8, ptr %27) #14
  %118 = load i64, ptr %26, align 8, !tbaa !18
  %119 = load i64, ptr %25, align 8, !tbaa !18
  %120 = add i64 %118, %119
  %121 = load i64, ptr %8, align 8, !tbaa !18
  %122 = icmp ult i64 %120, %121
  br i1 %122, label %123, label %125

123:                                              ; preds = %117
  %124 = load i64, ptr %25, align 8, !tbaa !18
  br label %129

125:                                              ; preds = %117
  %126 = load i64, ptr %8, align 8, !tbaa !18
  %127 = load i64, ptr %26, align 8, !tbaa !18
  %128 = sub i64 %126, %127
  br label %129

129:                                              ; preds = %125, %123
  %130 = phi i64 [ %124, %123 ], [ %128, %125 ]
  store i64 %130, ptr %27, align 8, !tbaa !18
  %131 = load ptr, ptr %12, align 8, !tbaa !20
  %132 = load ptr, ptr %14, align 8, !tbaa !15
  %133 = load ptr, ptr %15, align 8, !tbaa !15
  %134 = load ptr, ptr %13, align 8, !tbaa !15
  %135 = load i64, ptr %26, align 8, !tbaa !18
  %136 = load i64, ptr %9, align 8, !tbaa !18
  %137 = mul i64 %135, %136
  %138 = getelementptr inbounds nuw i8, ptr %134, i64 %137
  %139 = load i64, ptr %27, align 8, !tbaa !18
  %140 = load i64, ptr %9, align 8, !tbaa !18
  %141 = getelementptr inbounds [256 x i8], ptr %23, i64 0, i64 0
  %142 = load ptr, ptr %24, align 8, !tbaa !15
  %143 = load i32, ptr %18, align 4, !tbaa !8
  %144 = call noundef ptr %131(ptr noundef %132, ptr noundef %133, ptr noundef %138, i64 noundef %139, i64 noundef %140, ptr noundef %141, ptr noundef %142, i32 noundef %143)
  store ptr %144, ptr %14, align 8, !tbaa !15
  %145 = load ptr, ptr %14, align 8, !tbaa !15
  %146 = icmp ne ptr %145, null
  br i1 %146, label %148, label %147

147:                                              ; preds = %129
  store i32 -2, ptr %6, align 4
  store i32 1, ptr %16, align 4
  br label %152

148:                                              ; preds = %129
  %149 = load i64, ptr %27, align 8, !tbaa !18
  %150 = load i64, ptr %26, align 8, !tbaa !18
  %151 = add i64 %150, %149
  store i64 %151, ptr %26, align 8, !tbaa !18
  store i32 0, ptr %16, align 4
  br label %152

152:                                              ; preds = %148, %147
  call void @llvm.lifetime.end.p0(i64 8, ptr %27) #14
  %153 = load i32, ptr %16, align 4
  switch i32 %153, label %165 [
    i32 0, label %154
  ]

154:                                              ; preds = %152
  br label %113, !llvm.loop !33

155:                                              ; preds = %113
  %156 = load ptr, ptr %15, align 8, !tbaa !15
  %157 = load ptr, ptr %14, align 8, !tbaa !15
  %158 = ptrtoint ptr %156 to i64
  %159 = ptrtoint ptr %157 to i64
  %160 = sub i64 %158, %159
  %161 = load i64, ptr %21, align 8, !tbaa !18
  %162 = icmp ne i64 %160, %161
  br i1 %162, label %163, label %164

163:                                              ; preds = %155
  store i32 -3, ptr %6, align 4
  store i32 1, ptr %16, align 4
  br label %165

164:                                              ; preds = %155
  store i32 0, ptr %6, align 4
  store i32 1, ptr %16, align 4
  br label %165

165:                                              ; preds = %164, %163, %152
  call void @llvm.lifetime.end.p0(i64 8, ptr %26) #14
  call void @llvm.lifetime.end.p0(i64 8, ptr %25) #14
  call void @llvm.lifetime.end.p0(i64 8, ptr %24) #14
  call void @llvm.lifetime.end.p0(i64 256, ptr %23) #14
  call void @llvm.lifetime.end.p0(i64 8, ptr %22) #14
  br label %166

166:                                              ; preds = %165, %93
  call void @llvm.lifetime.end.p0(i64 8, ptr %21) #14
  call void @llvm.lifetime.end.p0(i64 8, ptr %20) #14
  call void @llvm.lifetime.end.p0(i64 8, ptr %19) #14
  br label %167

167:                                              ; preds = %166, %62
  call void @llvm.lifetime.end.p0(i64 4, ptr %18) #14
  br label %168

168:                                              ; preds = %167, %55
  call void @llvm.lifetime.end.p0(i64 1, ptr %17) #14
  br label %169

169:                                              ; preds = %168, %46
  call void @llvm.lifetime.end.p0(i64 8, ptr %15) #14
  call void @llvm.lifetime.end.p0(i64 8, ptr %14) #14
  call void @llvm.lifetime.end.p0(i64 8, ptr %13) #14
  call void @llvm.lifetime.end.p0(i64 8, ptr %12) #14
  %170 = load i32, ptr %6, align 4
  ret i32 %170
}