; Function Attrs: mustprogress uwtable
define dso_local range(i32 -3, 1) i32 @meshopt_decodeVertexBuffer(ptr noundef %0, i64 noundef %1, i64 noundef %2, ptr noundef %3, i64 noundef %4) local_unnamed_addr #7 {
  %6 = alloca [256 x i8], align 16
  %7 = load i32, ptr @_ZN7meshoptL5cpuidE, align 4, !tbaa !4
  %8 = and i32 %7, 512
  %.not = icmp eq i32 %8, 0
  %_ZN7meshoptL21decodeVertexBlockSimdEPKhS1_PhmmS2_S1_i._ZN7meshoptL17decodeVertexBlockEPKhS1_PhmmS2_S1_i = select i1 %.not, ptr @_ZN7meshoptL17decodeVertexBlockEPKhS1_PhmmS2_S1_i, ptr @_ZN7meshoptL21decodeVertexBlockSimdEPKhS1_PhmmS2_S1_i
  %9 = getelementptr inbounds nuw i8, ptr %3, i64 %4
  %10 = ptrtoint ptr %9 to i64
  %11 = icmp eq i64 %4, 0
  br i1 %11, label %51, label %12

12:                                               ; preds = %5
  %13 = getelementptr inbounds nuw i8, ptr %3, i64 1
  %14 = load i8, ptr %3, align 1, !tbaa !8
  %15 = zext i8 %14 to i32
  %16 = and i32 %15, 240
  %.not61 = icmp eq i32 %16, 160
  br i1 %.not61, label %17, label %51

17:                                               ; preds = %12
  %18 = and i32 %15, 15
  %19 = icmp samesign ugt i32 %18, 1
  br i1 %19, label %51, label %20

20:                                               ; preds = %17
  %21 = icmp eq i32 %18, 0
  %22 = lshr i64 %2, 2
  %23 = select i1 %21, i64 0, i64 %22
  %24 = add i64 %23, %2
  %25 = select i1 %21, i64 32, i64 24
  %26 = tail call i64 @llvm.umax.i64(i64 %24, i64 %25)
  %gepdiff = add nsw i64 %4, -1
  %27 = icmp ult i64 %gepdiff, %26
  br i1 %27, label %51, label %28

28:                                               ; preds = %20
  %29 = sub i64 0, %24
  %30 = getelementptr inbounds i8, ptr %9, i64 %29
  call void @llvm.lifetime.start.p0(i64 256, ptr nonnull %6) #12
  call void @llvm.memcpy.p0.p0.i64(ptr nonnull align 16 %6, ptr nonnull align 1 %30, i64 %2, i1 false)
  %31 = getelementptr inbounds nuw i8, ptr %30, i64 %2
  %32 = select i1 %21, ptr null, ptr %31
  %33 = udiv i64 8192, %2
  %34 = and i64 %33, 16368
  %35 = icmp ugt i64 %2, 32
  %36 = select i1 %35, i64 %34, i64 256
  br label %37

37:                                               ; preds = %39, %28
  %.056 = phi ptr [ %13, %28 ], [ %46, %39 ]
  %.054 = phi i64 [ 0, %28 ], [ %47, %39 ]
  %38 = icmp ult i64 %.054, %1
  br i1 %38, label %39, label %48

39:                                               ; preds = %37
  %40 = add i64 %.054, %36
  %41 = icmp ult i64 %40, %1
  %42 = sub nuw i64 %1, %.054
  %43 = select i1 %41, i64 %36, i64 %42
  %44 = mul i64 %.054, %2
  %45 = getelementptr inbounds nuw i8, ptr %0, i64 %44
  %46 = call noundef ptr %_ZN7meshoptL21decodeVertexBlockSimdEPKhS1_PhmmS2_S1_i._ZN7meshoptL17decodeVertexBlockEPKhS1_PhmmS2_S1_i(ptr noundef nonnull %.056, ptr noundef nonnull %9, ptr noundef %45, i64 noundef %43, i64 noundef %2, ptr noundef nonnull %6, ptr noundef %32, i32 noundef %18), !callees !37
  %.not63.not = icmp eq ptr %46, null
  %47 = add i64 %43, %.054
  br i1 %.not63.not, label %.loopexit, label %37, !llvm.loop !38

48:                                               ; preds = %37
  %49 = ptrtoint ptr %.056 to i64
  %50 = sub i64 %10, %49
  %.not62 = icmp eq i64 %50, %26
  %. = select i1 %.not62, i32 0, i32 -3
  br label %.loopexit

.loopexit:                                        ; preds = %39, %48
  %.6 = phi i32 [ %., %48 ], [ -2, %39 ]
  call void @llvm.lifetime.end.p0(i64 256, ptr nonnull %6) #12
  br label %51

51:                                               ; preds = %12, %.loopexit, %20, %17, %5
  %.0 = phi i32 [ -2, %5 ], [ -1, %12 ], [ -1, %17 ], [ %.6, %.loopexit ], [ -2, %20 ]
  ret i32 %.0
}